target datalayout = "e-m:e-p270:32:32-p271:32:32-p272:64:64-i64:64-i128:128-f80:128-n8:16:32:64-S128"
target triple = "x86_64-pc-linux-gnu"

%struct.jpeg_decompress_struct = type { ptr, ptr, ptr, ptr, i32, i32, ptr, i32, i32, i32, i32, i32, i32, i32, double, i32, i32, i32, i32, i32, i32, i32, i32, i32, i32, i32, i32, i32, i32, i32, i32, i32, i32, ptr, i32, i32, i32, i32, i32, ptr, [4 x ptr], [4 x ptr], [4 x ptr], i32, ptr, i32, i32, [16 x i8], [16 x i8], [16 x i8], i32, i32, i8, i8, i8, i16, i16, i32, i8, i32, ptr, i32, i32, i32, i32, ptr, i32, [4 x ptr], i32, i32, i32, [10 x i32], i32, i32, i32, i32, i32, ptr, ptr, ptr, ptr, ptr, ptr, ptr, ptr, ptr, ptr, ptr }
%struct.jpeg_common_struct = type { ptr, ptr, ptr, ptr, i32, i32 }
%struct.jpeg_compress_struct = type { ptr, ptr, ptr, ptr, i32, i32, ptr, i32, i32, i32, i32, double, i32, i32, i32, ptr, [4 x ptr], [4 x ptr], [4 x ptr], [16 x i8], [16 x i8], [16 x i8], i32, ptr, i32, i32, i32, i32, i32, i32, i32, i32, i32, i8, i8, i8, i16, i16, i32, i32, i32, i32, i32, i32, i32, [4 x ptr], i32, i32, i32, [10 x i32], i32, i32, i32, i32, ptr, ptr, ptr, ptr, ptr, ptr, ptr, ptr, ptr, ptr, i32 }

; Function Attrs: nounwind uwtable
define internal void @imageio_dispose(ptr noundef %0) #0 {
  %2 = alloca ptr, align 8
  %3 = alloca ptr, align 8
  %4 = alloca ptr, align 8
  store ptr %0, ptr %2, align 8
  %5 = load ptr, ptr %2, align 8
  %6 = icmp ne ptr %5, null
  br i1 %6, label %7, label %34

7:                                                ; preds = %1
  %8 = load ptr, ptr %2, align 8
  %9 = getelementptr inbounds %struct.jpeg_common_struct, ptr %8, i32 0, i32 4
  %10 = load i32, ptr %9, align 8
  %11 = icmp ne i32 %10, 0
  br i1 %11, label %12, label %19

12:                                               ; preds = %7
  %13 = load ptr, ptr %2, align 8
  store ptr %13, ptr %3, align 8
  %14 = load ptr, ptr %3, align 8
  %15 = getelementptr inbounds %struct.jpeg_decompress_struct, ptr %14, i32 0, i32 6
  %16 = load ptr, ptr %15, align 8
  call void @free(ptr noundef %16) #9
  %17 = load ptr, ptr %3, align 8
  %18 = getelementptr inbounds %struct.jpeg_decompress_struct, ptr %17, i32 0, i32 6
  store ptr null, ptr %18, align 8
  br label %26

19:                                               ; preds = %7
  %20 = load ptr, ptr %2, align 8
  store ptr %20, ptr %4, align 8
  %21 = load ptr, ptr %4, align 8
  %22 = getelementptr inbounds %struct.jpeg_compress_struct, ptr %21, i32 0, i32 6
  %23 = load ptr, ptr %22, align 8
  call void @free(ptr noundef %23) #9
  %24 = load ptr, ptr %4, align 8
  %25 = getelementptr inbounds %struct.jpeg_compress_struct, ptr %24, i32 0, i32 6
  store ptr null, ptr %25, align 8
  br label %26

26:                                               ; preds = %19, %12
  %27 = load ptr, ptr %2, align 8
  call void @jDestroy(ptr noundef %27)
  %28 = load ptr, ptr %2, align 8
  %29 = getelementptr inbounds %struct.jpeg_common_struct, ptr %28, i32 0, i32 0
  %30 = load ptr, ptr %29, align 8
  call void @free(ptr noundef %30) #9
  %31 = load ptr, ptr %2, align 8
  %32 = getelementptr inbounds %struct.jpeg_common_struct, ptr %31, i32 0, i32 0
  store ptr null, ptr %32, align 8
  %33 = load ptr, ptr %2, align 8
  call void @free(ptr noundef %33) #9
  br label %34

34:                                               ; preds = %26, %1
  ret void
}

; Function Attrs: nounwind uwtable
define void @Java_com_sun_imageio_plugins_jpeg_JPEGImageWriter_disposeWriter(ptr noundef %0, ptr noundef %1, i64 noundef %2) #0 {
  %4 = alloca ptr, align 8
  %5 = alloca ptr, align 8
  %6 = alloca i64, align 8
  %7 = alloca ptr, align 8
  %8 = alloca ptr, align 8
  store ptr %0, ptr %4, align 8
  store ptr %1, ptr %5, align 8
  store i64 %2, ptr %6, align 8
  %9 = load i64, ptr %6, align 8
  %10 = inttoptr i64 %9 to ptr
  store ptr %10, ptr %7, align 8
  %11 = load ptr, ptr %4, align 8
  %12 = load ptr, ptr %7, align 8
  %13 = call ptr @destroyImageioData(ptr noundef %11, ptr noundef %12)
  store ptr %13, ptr %8, align 8
  %14 = load ptr, ptr %8, align 8
  call void @imageio_dispose(ptr noundef %14)
  ret void
}