; Function Attrs: nounwind uwtable
define void @Java_com_sun_imageio_plugins_jpeg_JPEGImageWriter_disposeWriter(ptr noundef %0, ptr nocapture noundef readnone %1, i64 noundef %2) local_unnamed_addr #1 {
  %4 = inttoptr i64 %2 to ptr
  %5 = tail call fastcc ptr @destroyImageioData(ptr noundef %0, ptr noundef %4)
  %.not.i = icmp eq ptr %5, null
  br i1 %.not.i, label %imageio_dispose.exit, label %6

6:                                                ; preds = %3
  %7 = getelementptr inbounds i8, ptr %5, i64 40
  %8 = load ptr, ptr %7, align 8
  tail call void @free(ptr noundef %8) #13
  store ptr null, ptr %7, align 8
  tail call void @jDestroy(ptr noundef nonnull %5) #13
  %9 = load ptr, ptr %5, align 8
  tail call void @free(ptr noundef %9) #13
  tail call void @free(ptr noundef nonnull %5) #13
  br label %imageio_dispose.exit

imageio_dispose.exit:                             ; preds = %3, %6
  ret void
}